; Function Attrs: mustprogress sspstrong uwtable
define internal void @_ZL13py_an_deallocP8py_annoy(ptr noundef %0) #2 {
  %2 = getelementptr inbounds nuw i8, ptr %0, i64 24
  %3 = load ptr, ptr %2, align 8, !tbaa !25
  %4 = icmp eq ptr %3, null
  br i1 %4, label %9, label %5

5:                                                ; preds = %1
  %6 = load ptr, ptr %3, align 8, !tbaa !28
  %7 = getelementptr inbounds nuw i8, ptr %6, i64 8
  %8 = load ptr, ptr %7, align 8
  tail call void %8(ptr noundef nonnull align 8 dereferenceable(8) %3) #33
  br label %9

9:                                                ; preds = %5, %1
  %10 = getelementptr inbounds nuw i8, ptr %0, i64 8
  %11 = load ptr, ptr %10, align 8, !tbaa !33
  %12 = getelementptr inbounds nuw i8, ptr %11, i64 320
  %13 = load ptr, ptr %12, align 8, !tbaa !34
  tail call void %13(ptr noundef nonnull %0)
  ret void
}